(dp0
S'1'
p1
I226
sS'0'
p2
I209
sS'3'
p3
I195
sS'2'
p4
I209
sS'5'
p5
I204
sS'4'
p6
I206
sS'7'
p7
I170
sS'6'
p8
I217
sS'9'
p9
I208
sS'8'
p10
I178
sS'A'
p11
I86
sS'C'
p12
I78
sS'B'
p13
I75
sS'E'
p14
I68
sS'D'
p15
I73
sS'G'
p16
I90
sS'F'
p17
I71
sS'I'
p18
I70
sS'H'
p19
I66
sS'K'
p20
I77
sS'J'
p21
I72
sS'M'
p22
I80
sS'L'
p23
I61
sS'O'
p24
I84
sS'N'
p25
I96
sS'Q'
p26
I63
sS'P'
p27
I73
sS'S'
p28
I90
sS'R'
p29
I96
sS'U'
p30
I93
sS'T'
p31
I73
sS'W'
p32
I85
sS'V'
p33
I79
sS'Y'
p34
I51
sS'X'
p35
I82
sS'Z'
p36
I90
s.